target datalayout = "e-m:e-p270:32:32-p271:32:32-p272:64:64-i64:64-i128:128-f80:128-n8:16:32:64-S128"
target triple = "x86_64-pc-linux-gnu"

%struct.b2Vec2 = type { float, float }
%struct.RainData = type { [200 x %struct.Group], float, i32, i32, i32 }
%struct.Group = type { [5 x %struct.Human] }
%struct.Human = type { [11 x %struct.Bone], float, i8 }
%struct.Bone = type { %struct.b2BodyId, %struct.b2JointId, float, i32 }
%struct.b2BodyId = type { i32, i16, i16 }
%struct.b2JointId = type { i32, i16, i16 }
%struct.b2WorldId = type { i16, i16 }

@g_rainData = global %struct.RainData zeroinitializer, align 4

; Function Attrs: nounwind uwtable
define void @DestroyGroup(i32 noundef %0, i32 noundef %1) #0 {
  %3 = alloca i32, align 4
  %4 = alloca i32, align 4
  %5 = alloca i32, align 4
  %6 = alloca i32, align 4
  store i32 %0, ptr %3, align 4, !tbaa !3
  store i32 %1, ptr %4, align 4, !tbaa !3
  call void @llvm.lifetime.start.p0(i64 4, ptr %5) #9
  %7 = load i32, ptr %3, align 4, !tbaa !3
  %8 = mul nsw i32 %7, 40
  %9 = load i32, ptr %4, align 4, !tbaa !3
  %10 = add nsw i32 %8, %9
  store i32 %10, ptr %5, align 4, !tbaa !3
  call void @llvm.lifetime.start.p0(i64 4, ptr %6) #9
  store i32 0, ptr %6, align 4, !tbaa !3
  br label %11

11:                                               ; preds = %24, %2
  %12 = load i32, ptr %6, align 4, !tbaa !3
  %13 = icmp slt i32 %12, 5
  br i1 %13, label %15, label %14

14:                                               ; preds = %11
  call void @llvm.lifetime.end.p0(i64 4, ptr %6) #9
  br label %27

15:                                               ; preds = %11
  %16 = load i32, ptr %5, align 4, !tbaa !3
  %17 = sext i32 %16 to i64
  %18 = getelementptr inbounds [200 x %struct.Group], ptr @g_rainData, i64 0, i64 %17
  %19 = getelementptr inbounds nuw %struct.Group, ptr %18, i32 0, i32 0
  %20 = getelementptr inbounds [5 x %struct.Human], ptr %19, i64 0, i64 0
  %21 = load i32, ptr %6, align 4, !tbaa !3
  %22 = sext i32 %21 to i64
  %23 = getelementptr inbounds %struct.Human, ptr %20, i64 %22
  call void @DestroyHuman(ptr noundef %23)
  br label %24

24:                                               ; preds = %15
  %25 = load i32, ptr %6, align 4, !tbaa !3
  %26 = add nsw i32 %25, 1
  store i32 %26, ptr %6, align 4, !tbaa !3
  br label %11, !llvm.loop !51

27:                                               ; preds = %14
  call void @llvm.lifetime.end.p0(i64 4, ptr %5) #9
  ret void
}

; Function Attrs: nounwind uwtable
define void @CreateGroup(i32 %0, i32 noundef %1, i32 noundef %2) #6 {
  %4 = alloca %struct.b2WorldId, align 2
  %5 = alloca i32, align 4
  %6 = alloca i32, align 4
  %7 = alloca i32, align 4
  %8 = alloca float, align 4
  %9 = alloca float, align 4
  %10 = alloca %struct.b2Vec2, align 4
  %11 = alloca float, align 4
  %12 = alloca float, align 4
  %13 = alloca float, align 4
  %14 = alloca float, align 4
  %15 = alloca i32, align 4
  %16 = alloca ptr, align 8
  store i32 %0, ptr %4, align 2
  store i32 %1, ptr %5, align 4, !tbaa !3
  store i32 %2, ptr %6, align 4, !tbaa !3
  call void @llvm.lifetime.start.p0(i64 4, ptr %7) #9
  %17 = load i32, ptr %5, align 4, !tbaa !3
  %18 = mul nsw i32 %17, 40
  %19 = load i32, ptr %6, align 4, !tbaa !3
  %20 = add nsw i32 %18, %19
  store i32 %20, ptr %7, align 4, !tbaa !3
  call void @llvm.lifetime.start.p0(i64 4, ptr %8) #9
  %21 = load i32, ptr getelementptr inbounds nuw (%struct.RainData, ptr @g_rainData, i32 0, i32 2), align 4, !tbaa !43
  %22 = sitofp i32 %21 to float
  %23 = load float, ptr getelementptr inbounds nuw (%struct.RainData, ptr @g_rainData, i32 0, i32 1), align 4, !tbaa !41
  %24 = fmul float %22, %23
  store float %24, ptr %8, align 4, !tbaa !18
  call void @llvm.lifetime.start.p0(i64 4, ptr %9) #9
  %25 = load float, ptr %8, align 4, !tbaa !18
  %26 = fmul float 1.000000e+00, %25
  %27 = fdiv float %26, 4.000000e+01
  store float %27, ptr %9, align 4, !tbaa !18
  call void @llvm.lifetime.start.p0(i64 8, ptr %10) #9
  %28 = load float, ptr %8, align 4, !tbaa !18
  %29 = fmul float -5.000000e-01, %28
  %30 = load float, ptr %9, align 4, !tbaa !18
  %31 = load i32, ptr %6, align 4, !tbaa !3
  %32 = sitofp i32 %31 to float
  %33 = fadd float %32, 5.000000e-01
  %34 = fmul float %30, %33
  %35 = fadd float %29, %34
  %36 = getelementptr inbounds nuw %struct.b2Vec2, ptr %10, i32 0, i32 0
  store float %35, ptr %36, align 4, !tbaa !24
  %37 = load i32, ptr %5, align 4, !tbaa !3
  %38 = sitofp i32 %37 to float
  %39 = fmul float 4.500000e+01, %38
  %40 = fadd float 4.000000e+01, %39
  %41 = getelementptr inbounds nuw %struct.b2Vec2, ptr %10, i32 0, i32 1
  store float %40, ptr %41, align 4, !tbaa !25
  call void @llvm.lifetime.start.p0(i64 4, ptr %11) #9
  store float 1.000000e+00, ptr %11, align 4, !tbaa !18
  call void @llvm.lifetime.start.p0(i64 4, ptr %12) #9
  store float 0x3FA99999A0000000, ptr %12, align 4, !tbaa !18
  call void @llvm.lifetime.start.p0(i64 4, ptr %13) #9
  store float 5.000000e+00, ptr %13, align 4, !tbaa !18
  call void @llvm.lifetime.start.p0(i64 4, ptr %14) #9
  store float 5.000000e-01, ptr %14, align 4, !tbaa !18
  call void @llvm.lifetime.start.p0(i64 4, ptr %15) #9
  store i32 0, ptr %15, align 4, !tbaa !3
  br label %42

42:                                               ; preds = %67, %3
  %43 = load i32, ptr %15, align 4, !tbaa !3
  %44 = icmp slt i32 %43, 5
  br i1 %44, label %46, label %45

45:                                               ; preds = %42
  call void @llvm.lifetime.end.p0(i64 4, ptr %15) #9
  br label %70

46:                                               ; preds = %42
  call void @llvm.lifetime.start.p0(i64 8, ptr %16) #9
  %47 = load i32, ptr %7, align 4, !tbaa !3
  %48 = sext i32 %47 to i64
  %49 = getelementptr inbounds [200 x %struct.Group], ptr @g_rainData, i64 0, i64 %48
  %50 = getelementptr inbounds nuw %struct.Group, ptr %49, i32 0, i32 0
  %51 = getelementptr inbounds [5 x %struct.Human], ptr %50, i64 0, i64 0
  %52 = load i32, ptr %15, align 4, !tbaa !3
  %53 = sext i32 %52 to i64
  %54 = getelementptr inbounds %struct.Human, ptr %51, i64 %53
  store ptr %54, ptr %16, align 8, !tbaa !48
  %55 = load ptr, ptr %16, align 8, !tbaa !48
  %56 = load float, ptr %11, align 4, !tbaa !18
  %57 = load float, ptr %12, align 4, !tbaa !18
  %58 = load float, ptr %13, align 4, !tbaa !18
  %59 = load float, ptr %14, align 4, !tbaa !18
  %60 = load i32, ptr %15, align 4, !tbaa !3
  %61 = add nsw i32 %60, 1
  %62 = load i32, ptr %4, align 2
  %63 = load <2 x float>, ptr %10, align 4
  call void @CreateHuman(ptr noundef %55, i32 %62, <2 x float> %63, float noundef %56, float noundef %57, float noundef %58, float noundef %59, i32 noundef %61, ptr noundef null, i1 noundef zeroext false)
  %64 = getelementptr inbounds nuw %struct.b2Vec2, ptr %10, i32 0, i32 0
  %65 = load float, ptr %64, align 4, !tbaa !24
  %66 = fadd float %65, 5.000000e-01
  store float %66, ptr %64, align 4, !tbaa !24
  call void @llvm.lifetime.end.p0(i64 8, ptr %16) #9
  br label %67

67:                                               ; preds = %46
  %68 = load i32, ptr %15, align 4, !tbaa !3
  %69 = add nsw i32 %68, 1
  store i32 %69, ptr %15, align 4, !tbaa !3
  br label %42, !llvm.loop !50

70:                                               ; preds = %45
  call void @llvm.lifetime.end.p0(i64 4, ptr %14) #9
  call void @llvm.lifetime.end.p0(i64 4, ptr %13) #9
  call void @llvm.lifetime.end.p0(i64 4, ptr %12) #9
  call void @llvm.lifetime.end.p0(i64 4, ptr %11) #9
  call void @llvm.lifetime.end.p0(i64 8, ptr %10) #9
  call void @llvm.lifetime.end.p0(i64 4, ptr %9) #9
  call void @llvm.lifetime.end.p0(i64 4, ptr %8) #9
  call void @llvm.lifetime.end.p0(i64 4, ptr %7) #9
  ret void
}

; Function Attrs: nounwind uwtable
define float @StepRain(i32 %0, i32 noundef %1) #0 {
  %3 = alloca %struct.b2WorldId, align 2
  %4 = alloca i32, align 4
  %5 = alloca i32, align 4
  %6 = alloca i32, align 4
  %7 = alloca i32, align 4
  store i32 %0, ptr %3, align 2
  store i32 %1, ptr %4, align 4, !tbaa !3
  call void @llvm.lifetime.start.p0(i64 4, ptr %5) #9
  store i32 7, ptr %5, align 4, !tbaa !3
  %8 = load i32, ptr %4, align 4, !tbaa !3
  %9 = load i32, ptr %5, align 4, !tbaa !3
  %10 = and i32 %8, %9
  %11 = icmp eq i32 %10, 0
  br i1 %11, label %12, label %49

12:                                               ; preds = %2
  %13 = load i32, ptr getelementptr inbounds nuw (%struct.RainData, ptr @g_rainData, i32 0, i32 3), align 4, !tbaa !46
  %14 = icmp slt i32 %13, 40
  br i1 %14, label %15, label %30

15:                                               ; preds = %12
  call void @llvm.lifetime.start.p0(i64 4, ptr %6) #9
  store i32 0, ptr %6, align 4, !tbaa !3
  br label %16

16:                                               ; preds = %24, %15
  %17 = load i32, ptr %6, align 4, !tbaa !3
  %18 = icmp slt i32 %17, 5
  br i1 %18, label %20, label %19

19:                                               ; preds = %16
  call void @llvm.lifetime.end.p0(i64 4, ptr %6) #9
  br label %27

20:                                               ; preds = %16
  %21 = load i32, ptr %6, align 4, !tbaa !3
  %22 = load i32, ptr getelementptr inbounds nuw (%struct.RainData, ptr @g_rainData, i32 0, i32 3), align 4, !tbaa !46
  %23 = load i32, ptr %3, align 2
  call void @CreateGroup(i32 %23, i32 noundef %21, i32 noundef %22)
  br label %24

24:                                               ; preds = %20
  %25 = load i32, ptr %6, align 4, !tbaa !3
  %26 = add nsw i32 %25, 1
  store i32 %26, ptr %6, align 4, !tbaa !3
  br label %16, !llvm.loop !52

27:                                               ; preds = %19
  %28 = load i32, ptr getelementptr inbounds nuw (%struct.RainData, ptr @g_rainData, i32 0, i32 3), align 4, !tbaa !46
  %29 = add nsw i32 %28, 1
  store i32 %29, ptr getelementptr inbounds nuw (%struct.RainData, ptr @g_rainData, i32 0, i32 3), align 4, !tbaa !46
  br label %48

30:                                               ; preds = %12
  call void @llvm.lifetime.start.p0(i64 4, ptr %7) #9
  store i32 0, ptr %7, align 4, !tbaa !3
  br label %31

31:                                               ; preds = %41, %30
  %32 = load i32, ptr %7, align 4, !tbaa !3
  %33 = icmp slt i32 %32, 5
  br i1 %33, label %35, label %34

34:                                               ; preds = %31
  call void @llvm.lifetime.end.p0(i64 4, ptr %7) #9
  br label %44

35:                                               ; preds = %31
  %36 = load i32, ptr %7, align 4, !tbaa !3
  %37 = load i32, ptr getelementptr inbounds nuw (%struct.RainData, ptr @g_rainData, i32 0, i32 4), align 4, !tbaa !47
  call void @DestroyGroup(i32 noundef %36, i32 noundef %37)
  %38 = load i32, ptr %7, align 4, !tbaa !3
  %39 = load i32, ptr getelementptr inbounds nuw (%struct.RainData, ptr @g_rainData, i32 0, i32 4), align 4, !tbaa !47
  %40 = load i32, ptr %3, align 2
  call void @CreateGroup(i32 %40, i32 noundef %38, i32 noundef %39)
  br label %41

41:                                               ; preds = %35
  %42 = load i32, ptr %7, align 4, !tbaa !3
  %43 = add nsw i32 %42, 1
  store i32 %43, ptr %7, align 4, !tbaa !3
  br label %31, !llvm.loop !53

44:                                               ; preds = %34
  %45 = load i32, ptr getelementptr inbounds nuw (%struct.RainData, ptr @g_rainData, i32 0, i32 4), align 4, !tbaa !47
  %46 = add nsw i32 %45, 1
  %47 = srem i32 %46, 40
  store i32 %47, ptr getelementptr inbounds nuw (%struct.RainData, ptr @g_rainData, i32 0, i32 4), align 4, !tbaa !47
  br label %48

48:                                               ; preds = %44, %27
  br label %49

49:                                               ; preds = %48, %2
  call void @llvm.lifetime.end.p0(i64 4, ptr %5) #9
  ret float 0.000000e+00
}