; Function Attrs: nounwind uwtable
define noundef float @StepRain(i32 %0, i32 noundef %1) local_unnamed_addr #6 {
  %3 = and i32 %1, 7
  %4 = icmp eq i32 %3, 0
  br i1 %4, label %5, label %67

5:                                                ; preds = %2
  %6 = load i32, ptr getelementptr inbounds nuw (i8, ptr @g_rainData, i64 272008), align 4, !tbaa !37
  %7 = icmp slt i32 %6, 40
  br i1 %7, label %.preheader, label %.preheader23

8:                                                ; preds = %CreateGroup.exit
  %9 = load i32, ptr getelementptr inbounds nuw (i8, ptr @g_rainData, i64 272008), align 4, !tbaa !37
  %10 = add nsw i32 %9, 1
  store i32 %10, ptr getelementptr inbounds nuw (i8, ptr @g_rainData, i64 272008), align 4, !tbaa !37
  br label %67

.preheader:                                       ; preds = %5, %CreateGroup.exit
  %.01025 = phi i32 [ %33, %CreateGroup.exit ], [ 0, %5 ]
  %11 = load i32, ptr getelementptr inbounds nuw (i8, ptr @g_rainData, i64 272008), align 4, !tbaa !37
  %12 = mul nuw nsw i32 %.01025, 40
  %13 = add nsw i32 %11, %12
  %14 = load i32, ptr getelementptr inbounds nuw (i8, ptr @g_rainData, i64 272004), align 4, !tbaa !36
  %15 = sitofp i32 %14 to float
  %16 = load float, ptr getelementptr inbounds nuw (i8, ptr @g_rainData, i64 272000), align 4, !tbaa !34
  %17 = fmul float %16, %15
  %18 = fdiv float %17, 4.000000e+01
  %19 = fmul float %17, 5.000000e-01
  %20 = sitofp i32 %11 to float
  %21 = fadd float %20, 5.000000e-01
  %22 = fmul float %21, %18
  %23 = fsub float %22, %19
  %.sroa.0.0.vec.insert.i = insertelement <2 x float> poison, float %23, i64 0
  %24 = uitofp nneg i32 %.01025 to float
  %25 = fmul float %24, 4.500000e+01
  %26 = fadd float %25, 4.000000e+01
  %.sroa.0.4.vec.insert.i = insertelement <2 x float> %.sroa.0.0.vec.insert.i, float %26, i64 1
  %27 = sext i32 %13 to i64
  %28 = getelementptr inbounds [200 x %struct.Group], ptr @g_rainData, i64 0, i64 %27
  br label %29

29:                                               ; preds = %29, %.preheader
  %indvars.iv.i = phi i64 [ 0, %.preheader ], [ %indvars.iv.next.i, %29 ]
  %.sroa.0.022.i = phi <2 x float> [ %.sroa.0.4.vec.insert.i, %.preheader ], [ %.sroa.0.0.vec.insert11.i, %29 ]
  %30 = getelementptr inbounds nuw %struct.Human, ptr %28, i64 %indvars.iv.i
  %indvars.iv.next.i = add nuw nsw i64 %indvars.iv.i, 1
  %31 = trunc nuw nsw i64 %indvars.iv.next.i to i32
  tail call void @CreateHuman(ptr noundef nonnull %30, i32 %0, <2 x float> %.sroa.0.022.i, float noundef 1.000000e+00, float noundef 0x3FA99999A0000000, float noundef 5.000000e+00, float noundef 5.000000e-01, i32 noundef %31, ptr noundef null, i1 noundef zeroext false) #8
  %.sroa.0.0.vec.extract.i = extractelement <2 x float> %.sroa.0.022.i, i64 0
  %32 = fadd float %.sroa.0.0.vec.extract.i, 5.000000e-01
  %.sroa.0.0.vec.insert11.i = insertelement <2 x float> %.sroa.0.022.i, float %32, i64 0
  %exitcond.not.i = icmp eq i64 %indvars.iv.next.i, 5
  br i1 %exitcond.not.i, label %CreateGroup.exit, label %29, !llvm.loop !42

CreateGroup.exit:                                 ; preds = %29
  %33 = add nuw nsw i32 %.01025, 1
  %exitcond26.not = icmp eq i32 %33, 5
  br i1 %exitcond26.not, label %8, label %.preheader, !llvm.loop !44

34:                                               ; preds = %CreateGroup.exit22
  %35 = load i32, ptr getelementptr inbounds nuw (i8, ptr @g_rainData, i64 272012), align 4, !tbaa !38
  %36 = add nsw i32 %35, 1
  %37 = srem i32 %36, 40
  store i32 %37, ptr getelementptr inbounds nuw (i8, ptr @g_rainData, i64 272012), align 4, !tbaa !38
  br label %67

.preheader23:                                     ; preds = %5, %CreateGroup.exit22
  %.024 = phi i32 [ %66, %CreateGroup.exit22 ], [ 0, %5 ]
  %38 = load i32, ptr getelementptr inbounds nuw (i8, ptr @g_rainData, i64 272012), align 4, !tbaa !38
  %39 = mul nuw nsw i32 %.024, 40
  %40 = add nsw i32 %38, %39
  %41 = sext i32 %40 to i64
  %42 = getelementptr inbounds [200 x %struct.Group], ptr @g_rainData, i64 0, i64 %41
  br label %43

43:                                               ; preds = %43, %.preheader23
  %indvars.iv.i11 = phi i64 [ 0, %.preheader23 ], [ %indvars.iv.next.i12, %43 ]
  %44 = getelementptr inbounds nuw %struct.Human, ptr %42, i64 %indvars.iv.i11
  tail call void @DestroyHuman(ptr noundef nonnull %44) #8
  %indvars.iv.next.i12 = add nuw nsw i64 %indvars.iv.i11, 1
  %exitcond.not.i13 = icmp eq i64 %indvars.iv.next.i12, 5
  br i1 %exitcond.not.i13, label %DestroyGroup.exit, label %43, !llvm.loop !43

DestroyGroup.exit:                                ; preds = %43
  %45 = load i32, ptr getelementptr inbounds nuw (i8, ptr @g_rainData, i64 272012), align 4, !tbaa !38
  %46 = add nsw i32 %45, %39
  %47 = load i32, ptr getelementptr inbounds nuw (i8, ptr @g_rainData, i64 272004), align 4, !tbaa !36
  %48 = sitofp i32 %47 to float
  %49 = load float, ptr getelementptr inbounds nuw (i8, ptr @g_rainData, i64 272000), align 4, !tbaa !34
  %50 = fmul float %49, %48
  %51 = fdiv float %50, 4.000000e+01
  %52 = fmul float %50, 5.000000e-01
  %53 = sitofp i32 %45 to float
  %54 = fadd float %53, 5.000000e-01
  %55 = fmul float %54, %51
  %56 = fsub float %55, %52
  %.sroa.0.0.vec.insert.i14 = insertelement <2 x float> poison, float %56, i64 0
  %57 = uitofp nneg i32 %.024 to float
  %58 = fmul float %57, 4.500000e+01
  %59 = fadd float %58, 4.000000e+01
  %.sroa.0.4.vec.insert.i15 = insertelement <2 x float> %.sroa.0.0.vec.insert.i14, float %59, i64 1
  %60 = sext i32 %46 to i64
  %61 = getelementptr inbounds [200 x %struct.Group], ptr @g_rainData, i64 0, i64 %60
  br label %62

62:                                               ; preds = %62, %DestroyGroup.exit
  %indvars.iv.i16 = phi i64 [ 0, %DestroyGroup.exit ], [ %indvars.iv.next.i18, %62 ]
  %.sroa.0.022.i17 = phi <2 x float> [ %.sroa.0.4.vec.insert.i15, %DestroyGroup.exit ], [ %.sroa.0.0.vec.insert11.i20, %62 ]
  %63 = getelementptr inbounds nuw %struct.Human, ptr %61, i64 %indvars.iv.i16
  %indvars.iv.next.i18 = add nuw nsw i64 %indvars.iv.i16, 1
  %64 = trunc nuw nsw i64 %indvars.iv.next.i18 to i32
  tail call void @CreateHuman(ptr noundef nonnull %63, i32 %0, <2 x float> %.sroa.0.022.i17, float noundef 1.000000e+00, float noundef 0x3FA99999A0000000, float noundef 5.000000e+00, float noundef 5.000000e-01, i32 noundef %64, ptr noundef null, i1 noundef zeroext false) #8
  %.sroa.0.0.vec.extract.i19 = extractelement <2 x float> %.sroa.0.022.i17, i64 0
  %65 = fadd float %.sroa.0.0.vec.extract.i19, 5.000000e-01
  %.sroa.0.0.vec.insert11.i20 = insertelement <2 x float> %.sroa.0.022.i17, float %65, i64 0
  %exitcond.not.i21 = icmp eq i64 %indvars.iv.next.i18, 5
  br i1 %exitcond.not.i21, label %CreateGroup.exit22, label %62, !llvm.loop !42

CreateGroup.exit22:                               ; preds = %62
  %66 = add nuw nsw i32 %.024, 1
  %exitcond.not = icmp eq i32 %66, 5
  br i1 %exitcond.not, label %34, label %.preheader23, !llvm.loop !45

67:                                               ; preds = %8, %34, %2
  ret float 0.000000e+00
}